; Function Attrs: mustprogress uwtable
define void @_ZNK8facebook5velox4core20FieldAccessTypedExpr9serializeEv(ptr noalias sret(%"struct.folly::dynamic") align 8 %agg.result, ptr noundef nonnull align 8 dereferenceable(81) %this) unnamed_addr #0 align 2 personality ptr @__gxx_personality_v0 {
entry:
  %ref.tmp = alloca %"struct.folly::dynamic", align 8
  %agg.tmp2 = alloca %"class.std::__cxx11::basic_string", align 8
  tail call void @_ZNK8facebook5velox4core10ITypedExpr13serializeBaseESt17basic_string_viewIcSt11char_traitsIcEE(ptr sret(%"struct.folly::dynamic") align 8 %agg.result, ptr noundef nonnull align 8 dereferenceable(48) %this, i64 20, ptr nonnull @.str.8)
  %name_ = getelementptr inbounds i8, ptr %this, i64 48
  invoke void @_ZNSt7__cxx1112basic_stringIcSt11char_traitsIcESaIcEEC1ERKS4_(ptr noundef nonnull align 8 dereferenceable(32) %agg.tmp2, ptr noundef nonnull align 8 dereferenceable(32) %name_)
          to label %invoke.cont4 unwind label %lpad

invoke.cont4:                                     ; preds = %entry
  store i32 6, ptr %ref.tmp, align 8
  %u_.i = getelementptr inbounds i8, ptr %ref.tmp, i64 8
  store ptr null, ptr %u_.i, align 8
  call void @_ZNSt7__cxx1112basic_stringIcSt11char_traitsIcESaIcEEC1EOS4_(ptr noundef nonnull align 8 dereferenceable(32) %u_.i, ptr noundef nonnull align 8 dereferenceable(32) %agg.tmp2) #26
  %call = invoke noundef nonnull align 8 dereferenceable(40) ptr @_ZNR5folly7dynamicixENS_5RangeIPKcEE(ptr noundef nonnull align 8 dereferenceable(40) %agg.result, ptr nonnull @.str.14, ptr nonnull getelementptr inbounds ([10 x i8], ptr @.str.14, i64 0, i64 9))
          to label %invoke.cont8 unwind label %lpad6

invoke.cont8:                                     ; preds = %invoke.cont4
  %call9 = call noundef nonnull align 8 dereferenceable(40) ptr @_ZN5folly7dynamicaSEOS0_(ptr noundef nonnull align 8 dereferenceable(40) %call, ptr noundef nonnull align 8 dereferenceable(40) %ref.tmp) #26
  call void @_ZN5folly7dynamic7destroyEv(ptr noundef nonnull align 8 dereferenceable(40) %ref.tmp) #26
  call void @_ZNSt7__cxx1112basic_stringIcSt11char_traitsIcESaIcEED1Ev(ptr noundef nonnull align 8 dereferenceable(32) %agg.tmp2) #26
  ret void

lpad:                                             ; preds = %entry
  %0 = landingpad { ptr, i32 }
          cleanup
  br label %ehcleanup10

lpad6:                                            ; preds = %invoke.cont4
  %1 = landingpad { ptr, i32 }
          cleanup
  call void @_ZN5folly7dynamic7destroyEv(ptr noundef nonnull align 8 dereferenceable(40) %ref.tmp) #26
  call void @_ZNSt7__cxx1112basic_stringIcSt11char_traitsIcESaIcEED1Ev(ptr noundef nonnull align 8 dereferenceable(32) %agg.tmp2) #26
  br label %ehcleanup10

ehcleanup10:                                      ; preds = %lpad6, %lpad
  %.pn.pn = phi { ptr, i32 } [ %1, %lpad6 ], [ %0, %lpad ]
  call void @_ZN5folly7dynamic7destroyEv(ptr noundef nonnull align 8 dereferenceable(40) %agg.result) #26
  resume { ptr, i32 } %.pn.pn
}